target datalayout = "e-m:e-p270:32:32-p271:32:32-p272:64:64-i64:64-i128:128-f80:128-n8:16:32:64-S128"
target triple = "x86_64-pc-linux-gnu"

%struct.Lpk_Man_t_ = type { ptr, ptr, ptr, i32, i32, i32, i32, [10000 x %struct.Lpk_Cut_t_], [10000 x i32], ptr, ptr, ptr, ptr, i32, i32, i32, [100 x i32], [100 x i32], ptr, ptr, ptr, ptr, ptr, ptr, ptr, [32 x i32], [5 x [16 x ptr]], [8 x ptr], ptr, i32, i32, i32, i32, i32, i32, i32, i32, i32, i32, i32, i32, i32, [17 x i32], i64, i64, i64, i64, i64, i64, i64, i64, i64, i64, i64, i64, i64 }
%struct.Lpk_Cut_t_ = type { i32, [2 x i32], float, i32, [100 x i32], [100 x i32] }
%struct.Lpk_Par_t_ = type { i32, i32, i32, i32, i32, i32, i32, i32, i32, i32, i32, i32 }

; Function Attrs: nounwind uwtable
define i32 @Lpk_MapTreeBestCofVar(ptr noundef %0, ptr noundef %1, i32 noundef %2, ptr noundef %3, ptr noundef %4) #0 {
  %6 = alloca ptr, align 8
  %7 = alloca ptr, align 8
  %8 = alloca i32, align 4
  %9 = alloca ptr, align 8
  %10 = alloca ptr, align 8
  %11 = alloca i32, align 4
  %12 = alloca i32, align 4
  %13 = alloca i32, align 4
  %14 = alloca i32, align 4
  %15 = alloca i32, align 4
  %16 = alloca i32, align 4
  store ptr %0, ptr %6, align 8, !tbaa !3
  store ptr %1, ptr %7, align 8, !tbaa !8
  store i32 %2, ptr %8, align 4, !tbaa !10
  store ptr %3, ptr %9, align 8, !tbaa !8
  store ptr %4, ptr %10, align 8, !tbaa !8
  call void @llvm.lifetime.start.p0(i64 4, ptr %11) #4
  call void @llvm.lifetime.start.p0(i64 4, ptr %12) #4
  call void @llvm.lifetime.start.p0(i64 4, ptr %13) #4
  call void @llvm.lifetime.start.p0(i64 4, ptr %14) #4
  call void @llvm.lifetime.start.p0(i64 4, ptr %15) #4
  call void @llvm.lifetime.start.p0(i64 4, ptr %16) #4
  store i32 -1, ptr %12, align 4, !tbaa !10
  store i32 100000000, ptr %16, align 4, !tbaa !10
  store i32 0, ptr %11, align 4, !tbaa !10
  br label %17

17:                                               ; preds = %63, %5
  %18 = load i32, ptr %11, align 4, !tbaa !10
  %19 = load i32, ptr %8, align 4, !tbaa !10
  %20 = icmp slt i32 %18, %19
  br i1 %20, label %21, label %66

21:                                               ; preds = %17
  %22 = load ptr, ptr %9, align 8, !tbaa !8
  %23 = load ptr, ptr %7, align 8, !tbaa !8
  %24 = load i32, ptr %8, align 4, !tbaa !10
  %25 = load i32, ptr %11, align 4, !tbaa !10
  call void @Kit_TruthCofactor0New(ptr noundef %22, ptr noundef %23, i32 noundef %24, i32 noundef %25)
  %26 = load ptr, ptr %10, align 8, !tbaa !8
  %27 = load ptr, ptr %7, align 8, !tbaa !8
  %28 = load i32, ptr %8, align 4, !tbaa !10
  %29 = load i32, ptr %11, align 4, !tbaa !10
  call void @Kit_TruthCofactor1New(ptr noundef %26, ptr noundef %27, i32 noundef %28, i32 noundef %29)
  %30 = load ptr, ptr %9, align 8, !tbaa !8
  %31 = load i32, ptr %8, align 4, !tbaa !10
  %32 = call i32 @Kit_TruthSupportSize(ptr noundef %30, i32 noundef %31)
  store i32 %32, ptr %13, align 4, !tbaa !10
  %33 = load ptr, ptr %10, align 8, !tbaa !8
  %34 = load i32, ptr %8, align 4, !tbaa !10
  %35 = call i32 @Kit_TruthSupportSize(ptr noundef %33, i32 noundef %34)
  store i32 %35, ptr %14, align 4, !tbaa !10
  %36 = load i32, ptr %13, align 4, !tbaa !10
  %37 = load i32, ptr %14, align 4, !tbaa !10
  %38 = add nsw i32 %36, %37
  store i32 %38, ptr %15, align 4, !tbaa !10
  %39 = load i32, ptr %13, align 4, !tbaa !10
  %40 = load ptr, ptr %6, align 8, !tbaa !3
  %41 = getelementptr inbounds nuw %struct.Lpk_Man_t_, ptr %40, i32 0, i32 0
  %42 = load ptr, ptr %41, align 8, !tbaa !12
  %43 = getelementptr inbounds nuw %struct.Lpk_Par_t_, ptr %42, i32 0, i32 10
  %44 = load i32, ptr %43, align 4, !tbaa !23
  %45 = icmp sgt i32 %39, %44
  br i1 %45, label %54, label %46

46:                                               ; preds = %21
  %47 = load i32, ptr %14, align 4, !tbaa !10
  %48 = load ptr, ptr %6, align 8, !tbaa !3
  %49 = getelementptr inbounds nuw %struct.Lpk_Man_t_, ptr %48, i32 0, i32 0
  %50 = load ptr, ptr %49, align 8, !tbaa !12
  %51 = getelementptr inbounds nuw %struct.Lpk_Par_t_, ptr %50, i32 0, i32 10
  %52 = load i32, ptr %51, align 4, !tbaa !23
  %53 = icmp sgt i32 %47, %52
  br i1 %53, label %54, label %55

54:                                               ; preds = %46, %21
  br label %63

55:                                               ; preds = %46
  %56 = load i32, ptr %16, align 4, !tbaa !10
  %57 = load i32, ptr %15, align 4, !tbaa !10
  %58 = icmp sgt i32 %56, %57
  br i1 %58, label %59, label %62

59:                                               ; preds = %55
  %60 = load i32, ptr %15, align 4, !tbaa !10
  store i32 %60, ptr %16, align 4, !tbaa !10
  %61 = load i32, ptr %11, align 4, !tbaa !10
  store i32 %61, ptr %12, align 4, !tbaa !10
  br label %62

62:                                               ; preds = %59, %55
  br label %63

63:                                               ; preds = %62, %54
  %64 = load i32, ptr %11, align 4, !tbaa !10
  %65 = add nsw i32 %64, 1
  store i32 %65, ptr %11, align 4, !tbaa !10
  br label %17, !llvm.loop !25

66:                                               ; preds = %17
  %67 = load i32, ptr %12, align 4, !tbaa !10
  %68 = icmp ne i32 %67, -1
  br i1 %68, label %69, label %78

69:                                               ; preds = %66
  %70 = load ptr, ptr %9, align 8, !tbaa !8
  %71 = load ptr, ptr %7, align 8, !tbaa !8
  %72 = load i32, ptr %8, align 4, !tbaa !10
  %73 = load i32, ptr %12, align 4, !tbaa !10
  call void @Kit_TruthCofactor0New(ptr noundef %70, ptr noundef %71, i32 noundef %72, i32 noundef %73)
  %74 = load ptr, ptr %10, align 8, !tbaa !8
  %75 = load ptr, ptr %7, align 8, !tbaa !8
  %76 = load i32, ptr %8, align 4, !tbaa !10
  %77 = load i32, ptr %12, align 4, !tbaa !10
  call void @Kit_TruthCofactor1New(ptr noundef %74, ptr noundef %75, i32 noundef %76, i32 noundef %77)
  br label %78

78:                                               ; preds = %69, %66
  %79 = load i32, ptr %12, align 4, !tbaa !10
  call void @llvm.lifetime.end.p0(i64 4, ptr %16) #4
  call void @llvm.lifetime.end.p0(i64 4, ptr %15) #4
  call void @llvm.lifetime.end.p0(i64 4, ptr %14) #4
  call void @llvm.lifetime.end.p0(i64 4, ptr %13) #4
  call void @llvm.lifetime.end.p0(i64 4, ptr %12) #4
  call void @llvm.lifetime.end.p0(i64 4, ptr %11) #4
  ret i32 %79
}