; Function Attrs: nounwind uwtable
define i32 @Lpk_MapTreeBestCofVar(ptr noundef readonly captures(none) %0, ptr noundef %1, i32 noundef %2, ptr noundef %3, ptr noundef %4) local_unnamed_addr #0 {
  %6 = icmp sgt i32 %2, 0
  br i1 %6, label %.lr.ph, label %._crit_edge.thread

.lr.ph:                                           ; preds = %5, %.lr.ph
  %.047 = phi i32 [ %.1, %.lr.ph ], [ 100000000, %5 ]
  %.03446 = phi i32 [ %16, %.lr.ph ], [ 0, %5 ]
  %.03545 = phi i32 [ %.136, %.lr.ph ], [ -1, %5 ]
  tail call void @Kit_TruthCofactor0New(ptr noundef %3, ptr noundef %1, i32 noundef %2, i32 noundef %.03446) #5
  tail call void @Kit_TruthCofactor1New(ptr noundef %4, ptr noundef %1, i32 noundef %2, i32 noundef %.03446) #5
  %7 = tail call i32 @Kit_TruthSupportSize(ptr noundef %3, i32 noundef %2) #5
  %8 = tail call i32 @Kit_TruthSupportSize(ptr noundef %4, i32 noundef %2) #5
  %9 = add nsw i32 %8, %7
  %10 = load ptr, ptr %0, align 8, !tbaa !3
  %11 = getelementptr inbounds nuw i8, ptr %10, i64 40
  %12 = load i32, ptr %11, align 4, !tbaa !18
  %13 = icmp sle i32 %7, %12
  %14 = icmp sle i32 %8, %12
  %or.cond.not44 = select i1 %13, i1 %14, i1 false
  %15 = icmp sgt i32 %.047, %9
  %or.cond41 = select i1 %or.cond.not44, i1 %15, i1 false
  %.136 = select i1 %or.cond41, i32 %.03446, i32 %.03545
  %.1 = select i1 %or.cond41, i32 %9, i32 %.047
  %16 = add nuw nsw i32 %.03446, 1
  %exitcond.not = icmp eq i32 %16, %2
  br i1 %exitcond.not, label %._crit_edge, label %.lr.ph, !llvm.loop !20

._crit_edge:                                      ; preds = %.lr.ph
  %.not = icmp eq i32 %.136, -1
  br i1 %.not, label %._crit_edge.thread, label %17

17:                                               ; preds = %._crit_edge
  tail call void @Kit_TruthCofactor0New(ptr noundef %3, ptr noundef %1, i32 noundef %2, i32 noundef %.136) #5
  tail call void @Kit_TruthCofactor1New(ptr noundef %4, ptr noundef %1, i32 noundef %2, i32 noundef %.136) #5
  br label %._crit_edge.thread

._crit_edge.thread:                               ; preds = %5, %17, %._crit_edge
  %.035.lcssa50 = phi i32 [ %.136, %17 ], [ -1, %._crit_edge ], [ -1, %5 ]
  ret i32 %.035.lcssa50
}